; Function Attrs: null_pointer_is_valid sspstrong uwtable
define internal void @capture_column_free_cb(ptr noundef captures(none) %0) #1 {
  %2 = load ptr, ptr getelementptr inbounds nuw (i8, ptr @prefs, i64 368), align 8
  tail call void @g_list_free_full(ptr noundef %2, ptr noundef nonnull @g_free)
  store ptr null, ptr getelementptr inbounds nuw (i8, ptr @prefs, i64 368), align 8
  %3 = getelementptr inbounds nuw i8, ptr %0, i64 48
  %4 = load i8, ptr %3, align 8, !range !6, !noundef !7
  %5 = trunc nuw i8 %4 to i1
  br i1 %5, label %6, label %9

6:                                                ; preds = %1
  %7 = getelementptr inbounds nuw i8, ptr %0, i64 56
  %8 = load ptr, ptr %7, align 8
  tail call void @g_list_free_full(ptr noundef %8, ptr noundef nonnull @g_free)
  store ptr null, ptr %7, align 8
  br label %9

9:                                                ; preds = %6, %1
  ret void
}